target datalayout = "e-m:e-p270:32:32-p271:32:32-p272:64:64-i64:64-i128:128-f80:128-n8:16:32:64-S128"
target triple = "x86_64-pc-linux-gnu"

%struct.H5R_ref_priv_t = type { %union.anon, i64, i32, i8, i8, i8 }
%union.anon = type { %struct.H5R_ref_priv_reg_t }
%struct.H5R_ref_priv_reg_t = type { %struct.H5R_ref_priv_obj_t, ptr }
%struct.H5R_ref_priv_obj_t = type { %struct.H5O_token_t, ptr }
%struct.H5O_token_t = type { [16 x i8] }
%struct.H5R_ref_priv_attr_t = type { %struct.H5R_ref_priv_obj_t, ptr }

@H5R_init_g = global i8 0, align 1
@H5_libterm_g = external global i8, align 1
@.str = private unnamed_addr constant [100 x i8] c"generated/home/dtcxzyw/WorkSpace/Projects/compilers/llvm-opt-benchmark/bench/hdf5/hdf5/src/H5Rint.c\00", align 1
@H5E_REFERENCE_g = external global i64, align 8
@H5E_UNSUPPORTED_g = external global i64, align 8
@.str.7 = private unnamed_addr constant [40 x i8] c"internal error (invalid reference type)\00", align 1
@.str.8 = private unnamed_addr constant [40 x i8] c"internal error (unknown reference type)\00", align 1
@__func__.H5R__equal = private unnamed_addr constant [11 x i8] c"H5R__equal\00", align 1
@H5E_CANTCOMPARE_g = external global i64, align 8
@.str.22 = private unnamed_addr constant [33 x i8] c"cannot compare dataspace extents\00", align 1

; Function Attrs: nounwind uwtable
define i32 @H5R__equal(ptr noundef %0, ptr noundef %1) #0 {
  %3 = alloca ptr, align 8
  %4 = alloca ptr, align 8
  %5 = alloca i32, align 4
  %6 = alloca i8, align 1
  store ptr %0, ptr %3, align 8, !tbaa !14
  store ptr %1, ptr %4, align 8, !tbaa !14
  call void @llvm.lifetime.start.p0(i64 4, ptr %5) #9
  store i32 1, ptr %5, align 4, !tbaa !16
  call void @llvm.lifetime.start.p0(i64 1, ptr %6) #9
  store i8 0, ptr %6, align 1, !tbaa !3
  %7 = load i8, ptr @H5R_init_g, align 1, !tbaa !3, !range !7, !noundef !8
  %8 = trunc i8 %7 to i1
  br i1 %8, label %13, label %9

9:                                                ; preds = %2
  %10 = load i8, ptr @H5_libterm_g, align 1, !tbaa !3, !range !7, !noundef !8
  %11 = trunc i8 %10 to i1
  %12 = xor i1 %11, true
  br label %13

13:                                               ; preds = %9, %2
  %14 = phi i1 [ true, %2 ], [ %12, %9 ]
  %15 = xor i1 %14, true
  %16 = xor i1 %15, true
  %17 = zext i1 %16 to i32
  %18 = sext i32 %17 to i64
  %19 = call i64 @llvm.expect.i64(i64 %18, i64 1)
  %20 = icmp ne i64 %19, 0
  br i1 %20, label %21, label %213

21:                                               ; preds = %13
  %22 = load ptr, ptr %3, align 8, !tbaa !14
  %23 = getelementptr inbounds nuw %struct.H5R_ref_priv_t, ptr %22, i32 0, i32 3
  %24 = load i8, ptr %23, align 4, !tbaa !21
  %25 = sext i8 %24 to i32
  %26 = load ptr, ptr %4, align 8, !tbaa !14
  %27 = getelementptr inbounds nuw %struct.H5R_ref_priv_t, ptr %26, i32 0, i32 3
  %28 = load i8, ptr %27, align 4, !tbaa !21
  %29 = sext i8 %28 to i32
  %30 = icmp ne i32 %25, %29
  br i1 %30, label %31, label %35

31:                                               ; preds = %21
  br label %32

32:                                               ; preds = %31
  store i32 0, ptr %5, align 4, !tbaa !16
  br label %212

33:                                               ; No predecessors!
  br label %34

34:                                               ; preds = %33
  br label %35

35:                                               ; preds = %34, %21
  %36 = load ptr, ptr %3, align 8, !tbaa !14
  %37 = getelementptr inbounds nuw %struct.H5R_ref_priv_t, ptr %36, i32 0, i32 4
  %38 = load i8, ptr %37, align 1, !tbaa !23
  %39 = zext i8 %38 to i32
  %40 = load ptr, ptr %4, align 8, !tbaa !14
  %41 = getelementptr inbounds nuw %struct.H5R_ref_priv_t, ptr %40, i32 0, i32 4
  %42 = load i8, ptr %41, align 1, !tbaa !23
  %43 = zext i8 %42 to i32
  %44 = icmp ne i32 %39, %43
  br i1 %44, label %45, label %49

45:                                               ; preds = %35
  br label %46

46:                                               ; preds = %45
  store i32 0, ptr %5, align 4, !tbaa !16
  br label %212

47:                                               ; No predecessors!
  br label %48

48:                                               ; preds = %47
  br label %49

49:                                               ; preds = %48, %35
  %50 = load ptr, ptr %3, align 8, !tbaa !14
  %51 = getelementptr inbounds nuw %struct.H5R_ref_priv_t, ptr %50, i32 0, i32 0
  %52 = getelementptr inbounds nuw %struct.H5R_ref_priv_obj_t, ptr %51, i32 0, i32 0
  %53 = load ptr, ptr %4, align 8, !tbaa !14
  %54 = getelementptr inbounds nuw %struct.H5R_ref_priv_t, ptr %53, i32 0, i32 0
  %55 = getelementptr inbounds nuw %struct.H5R_ref_priv_obj_t, ptr %54, i32 0, i32 0
  %56 = load ptr, ptr %3, align 8, !tbaa !14
  %57 = getelementptr inbounds nuw %struct.H5R_ref_priv_t, ptr %56, i32 0, i32 4
  %58 = load i8, ptr %57, align 1, !tbaa !23
  %59 = zext i8 %58 to i64
  %60 = call i32 @memcmp(ptr noundef %52, ptr noundef %55, i64 noundef %59) #10
  %61 = icmp ne i32 0, %60
  br i1 %61, label %62, label %66

62:                                               ; preds = %49
  br label %63

63:                                               ; preds = %62
  store i32 0, ptr %5, align 4, !tbaa !16
  br label %212

64:                                               ; No predecessors!
  br label %65

65:                                               ; preds = %64
  br label %66

66:                                               ; preds = %65, %49
  %67 = load ptr, ptr %3, align 8, !tbaa !14
  %68 = getelementptr inbounds nuw %struct.H5R_ref_priv_t, ptr %67, i32 0, i32 0
  %69 = getelementptr inbounds nuw %struct.H5R_ref_priv_obj_t, ptr %68, i32 0, i32 1
  %70 = load ptr, ptr %69, align 8, !tbaa !18
  %71 = icmp ne ptr %70, null
  br i1 %71, label %72, label %78

72:                                               ; preds = %66
  %73 = load ptr, ptr %4, align 8, !tbaa !14
  %74 = getelementptr inbounds nuw %struct.H5R_ref_priv_t, ptr %73, i32 0, i32 0
  %75 = getelementptr inbounds nuw %struct.H5R_ref_priv_obj_t, ptr %74, i32 0, i32 1
  %76 = load ptr, ptr %75, align 8, !tbaa !18
  %77 = icmp eq ptr null, %76
  br i1 %77, label %90, label %78

78:                                               ; preds = %72, %66
  %79 = load ptr, ptr %3, align 8, !tbaa !14
  %80 = getelementptr inbounds nuw %struct.H5R_ref_priv_t, ptr %79, i32 0, i32 0
  %81 = getelementptr inbounds nuw %struct.H5R_ref_priv_obj_t, ptr %80, i32 0, i32 1
  %82 = load ptr, ptr %81, align 8, !tbaa !18
  %83 = icmp eq ptr null, %82
  br i1 %83, label %84, label %94

84:                                               ; preds = %78
  %85 = load ptr, ptr %4, align 8, !tbaa !14
  %86 = getelementptr inbounds nuw %struct.H5R_ref_priv_t, ptr %85, i32 0, i32 0
  %87 = getelementptr inbounds nuw %struct.H5R_ref_priv_obj_t, ptr %86, i32 0, i32 1
  %88 = load ptr, ptr %87, align 8, !tbaa !18
  %89 = icmp ne ptr %88, null
  br i1 %89, label %90, label %94

90:                                               ; preds = %84, %72
  br label %91

91:                                               ; preds = %90
  store i32 0, ptr %5, align 4, !tbaa !16
  br label %212

92:                                               ; No predecessors!
  br label %93

93:                                               ; preds = %92
  br label %94

94:                                               ; preds = %93, %84, %78
  %95 = load ptr, ptr %3, align 8, !tbaa !14
  %96 = getelementptr inbounds nuw %struct.H5R_ref_priv_t, ptr %95, i32 0, i32 0
  %97 = getelementptr inbounds nuw %struct.H5R_ref_priv_obj_t, ptr %96, i32 0, i32 1
  %98 = load ptr, ptr %97, align 8, !tbaa !18
  %99 = icmp ne ptr %98, null
  br i1 %99, label %100, label %121

100:                                              ; preds = %94
  %101 = load ptr, ptr %3, align 8, !tbaa !14
  %102 = getelementptr inbounds nuw %struct.H5R_ref_priv_t, ptr %101, i32 0, i32 0
  %103 = getelementptr inbounds nuw %struct.H5R_ref_priv_obj_t, ptr %102, i32 0, i32 1
  %104 = load ptr, ptr %103, align 8, !tbaa !18
  %105 = icmp ne ptr %104, null
  br i1 %105, label %106, label %121

106:                                              ; preds = %100
  %107 = load ptr, ptr %3, align 8, !tbaa !14
  %108 = getelementptr inbounds nuw %struct.H5R_ref_priv_t, ptr %107, i32 0, i32 0
  %109 = getelementptr inbounds nuw %struct.H5R_ref_priv_obj_t, ptr %108, i32 0, i32 1
  %110 = load ptr, ptr %109, align 8, !tbaa !18
  %111 = load ptr, ptr %4, align 8, !tbaa !14
  %112 = getelementptr inbounds nuw %struct.H5R_ref_priv_t, ptr %111, i32 0, i32 0
  %113 = getelementptr inbounds nuw %struct.H5R_ref_priv_obj_t, ptr %112, i32 0, i32 1
  %114 = load ptr, ptr %113, align 8, !tbaa !18
  %115 = call i32 @strcmp(ptr noundef %110, ptr noundef %114) #10
  %116 = icmp ne i32 0, %115
  br i1 %116, label %117, label %121

117:                                              ; preds = %106
  br label %118

118:                                              ; preds = %117
  store i32 0, ptr %5, align 4, !tbaa !16
  br label %212

119:                                              ; No predecessors!
  br label %120

120:                                              ; preds = %119
  br label %121

121:                                              ; preds = %120, %106, %100, %94
  %122 = load ptr, ptr %3, align 8, !tbaa !14
  %123 = getelementptr inbounds nuw %struct.H5R_ref_priv_t, ptr %122, i32 0, i32 3
  %124 = load i8, ptr %123, align 4, !tbaa !21
  %125 = sext i8 %124 to i32
  switch i32 %125, label %192 [
    i32 2, label %211
    i32 3, label %126
    i32 4, label %157
    i32 0, label %173
    i32 1, label %173
    i32 -1, label %173
    i32 5, label %173
  ]

126:                                              ; preds = %121
  %127 = load ptr, ptr %3, align 8, !tbaa !14
  %128 = getelementptr inbounds nuw %struct.H5R_ref_priv_t, ptr %127, i32 0, i32 0
  %129 = getelementptr inbounds nuw %struct.H5R_ref_priv_reg_t, ptr %128, i32 0, i32 1
  %130 = load ptr, ptr %129, align 8, !tbaa !18
  %131 = load ptr, ptr %4, align 8, !tbaa !14
  %132 = getelementptr inbounds nuw %struct.H5R_ref_priv_t, ptr %131, i32 0, i32 0
  %133 = getelementptr inbounds nuw %struct.H5R_ref_priv_reg_t, ptr %132, i32 0, i32 1
  %134 = load ptr, ptr %133, align 8, !tbaa !18
  %135 = call i32 @H5S_extent_equal(ptr noundef %130, ptr noundef %134)
  store i32 %135, ptr %5, align 4, !tbaa !16
  %136 = icmp slt i32 %135, 0
  br i1 %136, label %137, label %156

137:                                              ; preds = %126
  br label %138

138:                                              ; preds = %137
  br label %139

139:                                              ; preds = %138
  br label %140

140:                                              ; preds = %139
  %141 = load i64, ptr @H5E_REFERENCE_g, align 8, !tbaa !12
  %142 = load i64, ptr @H5E_CANTCOMPARE_g, align 8, !tbaa !12
  %143 = call i32 (ptr, ptr, i32, i64, i64, ptr, ...) @H5E_printf_stack(ptr noundef @.str, ptr noundef @__func__.H5R__equal, i32 noundef 591, i64 noundef %141, i64 noundef %142, ptr noundef @.str.22)
  br label %144

144:                                              ; preds = %140
  br label %145

145:                                              ; preds = %144
  store i8 1, ptr %6, align 1, !tbaa !3
  %146 = load i8, ptr %6, align 1, !tbaa !3, !range !7, !noundef !8
  %147 = trunc i8 %146 to i1
  %148 = zext i1 %147 to i8
  store i8 %148, ptr %6, align 1, !tbaa !3
  br label %149

149:                                              ; preds = %145
  br label %150

150:                                              ; preds = %149
  br label %151

151:                                              ; preds = %150
  store i32 -1, ptr %5, align 4, !tbaa !16
  br label %212

152:                                              ; No predecessors!
  br label %153

153:                                              ; preds = %152
  br label %154

154:                                              ; preds = %153
  br label %155

155:                                              ; preds = %154
  br label %156

156:                                              ; preds = %155, %126
  br label %211

157:                                              ; preds = %121
  %158 = load ptr, ptr %3, align 8, !tbaa !14
  %159 = getelementptr inbounds nuw %struct.H5R_ref_priv_t, ptr %158, i32 0, i32 0
  %160 = getelementptr inbounds nuw %struct.H5R_ref_priv_attr_t, ptr %159, i32 0, i32 1
  %161 = load ptr, ptr %160, align 8, !tbaa !18
  %162 = load ptr, ptr %4, align 8, !tbaa !14
  %163 = getelementptr inbounds nuw %struct.H5R_ref_priv_t, ptr %162, i32 0, i32 0
  %164 = getelementptr inbounds nuw %struct.H5R_ref_priv_attr_t, ptr %163, i32 0, i32 1
  %165 = load ptr, ptr %164, align 8, !tbaa !18
  %166 = call i32 @strcmp(ptr noundef %161, ptr noundef %165) #10
  %167 = icmp ne i32 0, %166
  br i1 %167, label %168, label %172

168:                                              ; preds = %157
  br label %169

169:                                              ; preds = %168
  store i32 0, ptr %5, align 4, !tbaa !16
  br label %212

170:                                              ; No predecessors!
  br label %171

171:                                              ; preds = %170
  br label %172

172:                                              ; preds = %171, %157
  br label %211

173:                                              ; preds = %121, %121, %121, %121
  br label %174

174:                                              ; preds = %173
  br label %175

175:                                              ; preds = %174
  br label %176

176:                                              ; preds = %175
  %177 = load i64, ptr @H5E_REFERENCE_g, align 8, !tbaa !12
  %178 = load i64, ptr @H5E_UNSUPPORTED_g, align 8, !tbaa !12
  %179 = call i32 (ptr, ptr, i32, i64, i64, ptr, ...) @H5E_printf_stack(ptr noundef @.str, ptr noundef @__func__.H5R__equal, i32 noundef 603, i64 noundef %177, i64 noundef %178, ptr noundef @.str.7)
  br label %180

180:                                              ; preds = %176
  br label %181

181:                                              ; preds = %180
  store i8 1, ptr %6, align 1, !tbaa !3
  %182 = load i8, ptr %6, align 1, !tbaa !3, !range !7, !noundef !8
  %183 = trunc i8 %182 to i1
  %184 = zext i1 %183 to i8
  store i8 %184, ptr %6, align 1, !tbaa !3
  br label %185

185:                                              ; preds = %181
  br label %186

186:                                              ; preds = %185
  br label %187

187:                                              ; preds = %186
  store i32 -1, ptr %5, align 4, !tbaa !16
  br label %212

188:                                              ; No predecessors!
  br label %189

189:                                              ; preds = %188
  br label %190

190:                                              ; preds = %189
  br label %191

191:                                              ; preds = %190
  br label %192

192:                                              ; preds = %121, %191
  br label %193

193:                                              ; preds = %192
  br label %194

194:                                              ; preds = %193
  br label %195

195:                                              ; preds = %194
  %196 = load i64, ptr @H5E_REFERENCE_g, align 8, !tbaa !12
  %197 = load i64, ptr @H5E_UNSUPPORTED_g, align 8, !tbaa !12
  %198 = call i32 (ptr, ptr, i32, i64, i64, ptr, ...) @H5E_printf_stack(ptr noundef @.str, ptr noundef @__func__.H5R__equal, i32 noundef 606, i64 noundef %196, i64 noundef %197, ptr noundef @.str.8)
  br label %199

199:                                              ; preds = %195
  br label %200

200:                                              ; preds = %199
  store i8 1, ptr %6, align 1, !tbaa !3
  %201 = load i8, ptr %6, align 1, !tbaa !3, !range !7, !noundef !8
  %202 = trunc i8 %201 to i1
  %203 = zext i1 %202 to i8
  store i8 %203, ptr %6, align 1, !tbaa !3
  br label %204

204:                                              ; preds = %200
  br label %205

205:                                              ; preds = %204
  br label %206

206:                                              ; preds = %205
  store i32 -1, ptr %5, align 4, !tbaa !16
  br label %212

207:                                              ; No predecessors!
  br label %208

208:                                              ; preds = %207
  br label %209

209:                                              ; preds = %208
  br label %210

210:                                              ; preds = %209
  br label %211

211:                                              ; preds = %210, %172, %156, %121
  br label %212

212:                                              ; preds = %211, %206, %187, %169, %151, %118, %91, %63, %46, %32
  br label %213

213:                                              ; preds = %212, %13
  %214 = load i32, ptr %5, align 4, !tbaa !16
  call void @llvm.lifetime.end.p0(i64 1, ptr %6) #9
  call void @llvm.lifetime.end.p0(i64 4, ptr %5) #9
  ret i32 %214
}