; Function Attrs: nounwind uwtable
define range(i32 -1, -2147483648) i32 @H5R__equal(ptr noundef readonly captures(none) %0, ptr noundef readonly captures(none) %1) local_unnamed_addr #1 {
  %3 = load i8, ptr @H5R_init_g, align 1, !tbaa !3, !range !7, !noundef !8
  %4 = trunc nuw i8 %3 to i1
  %5 = load i8, ptr @H5_libterm_g, align 1, !range !7
  %6 = trunc nuw i8 %5 to i1
  %7 = xor i1 %6, true
  %8 = select i1 %4, i1 true, i1 %7
  br i1 %8, label %9, label %55, !prof !9

9:                                                ; preds = %2
  %10 = getelementptr inbounds nuw i8, ptr %0, i64 44
  %11 = load i8, ptr %10, align 4, !tbaa !15
  %12 = getelementptr inbounds nuw i8, ptr %1, i64 44
  %13 = load i8, ptr %12, align 4, !tbaa !15
  %.not = icmp eq i8 %11, %13
  br i1 %.not, label %14, label %55

14:                                               ; preds = %9
  %15 = getelementptr inbounds nuw i8, ptr %0, i64 45
  %16 = load i8, ptr %15, align 1, !tbaa !16
  %17 = getelementptr inbounds nuw i8, ptr %1, i64 45
  %18 = load i8, ptr %17, align 1, !tbaa !16
  %.not25 = icmp eq i8 %16, %18
  br i1 %.not25, label %19, label %55

19:                                               ; preds = %14
  %20 = zext i8 %16 to i64
  %bcmp = tail call i32 @bcmp(ptr nonnull %0, ptr nonnull %1, i64 %20)
  %.not26 = icmp eq i32 %bcmp, 0
  br i1 %.not26, label %21, label %55

21:                                               ; preds = %19
  %22 = getelementptr inbounds nuw i8, ptr %0, i64 16
  %23 = load ptr, ptr %22, align 8, !tbaa !10
  %.not27 = icmp eq ptr %23, null
  %24 = getelementptr inbounds nuw i8, ptr %1, i64 16
  %25 = load ptr, ptr %24, align 8, !tbaa !10
  %.not28 = icmp eq ptr %25, null
  br i1 %.not27, label %27, label %26

26:                                               ; preds = %21
  br i1 %.not28, label %55, label %28

27:                                               ; preds = %21
  br i1 %.not28, label %.thread32, label %55

28:                                               ; preds = %26
  %29 = tail call i32 @strcmp(ptr noundef nonnull dereferenceable(1) %23, ptr noundef nonnull dereferenceable(1) %25) #16
  %.not30 = icmp eq i32 %29, 0
  br i1 %.not30, label %.thread32, label %55

.thread32:                                        ; preds = %27, %28
  switch i8 %11, label %51 [
    i8 2, label %55
    i8 3, label %30
    i8 4, label %41
    i8 0, label %47
    i8 1, label %47
    i8 -1, label %47
    i8 5, label %47
  ]

30:                                               ; preds = %.thread32
  %31 = getelementptr inbounds nuw i8, ptr %0, i64 24
  %32 = load ptr, ptr %31, align 8, !tbaa !10
  %33 = getelementptr inbounds nuw i8, ptr %1, i64 24
  %34 = load ptr, ptr %33, align 8, !tbaa !10
  %35 = tail call i32 @H5S_extent_equal(ptr noundef %32, ptr noundef %34) #15
  %36 = icmp slt i32 %35, 0
  br i1 %36, label %37, label %55

37:                                               ; preds = %30
  %38 = load i64, ptr @H5E_REFERENCE_g, align 8, !tbaa !17
  %39 = load i64, ptr @H5E_CANTCOMPARE_g, align 8, !tbaa !17
  %40 = tail call i32 (ptr, ptr, i32, i64, i64, ptr, ...) @H5E_printf_stack(ptr noundef nonnull @.str, ptr noundef nonnull @__func__.H5R__equal, i32 noundef 591, i64 noundef %38, i64 noundef %39, ptr noundef nonnull @.str.22) #15
  br label %55

41:                                               ; preds = %.thread32
  %42 = getelementptr inbounds nuw i8, ptr %0, i64 24
  %43 = load ptr, ptr %42, align 8, !tbaa !10
  %44 = getelementptr inbounds nuw i8, ptr %1, i64 24
  %45 = load ptr, ptr %44, align 8, !tbaa !10
  %46 = tail call i32 @strcmp(ptr noundef nonnull dereferenceable(1) %43, ptr noundef nonnull dereferenceable(1) %45) #16
  %.not31 = icmp eq i32 %46, 0
  %spec.select = zext i1 %.not31 to i32
  br label %55

47:                                               ; preds = %.thread32, %.thread32, %.thread32, %.thread32
  %48 = load i64, ptr @H5E_REFERENCE_g, align 8, !tbaa !17
  %49 = load i64, ptr @H5E_UNSUPPORTED_g, align 8, !tbaa !17
  %50 = tail call i32 (ptr, ptr, i32, i64, i64, ptr, ...) @H5E_printf_stack(ptr noundef nonnull @.str, ptr noundef nonnull @__func__.H5R__equal, i32 noundef 603, i64 noundef %48, i64 noundef %49, ptr noundef nonnull @.str.7) #15
  br label %55

51:                                               ; preds = %.thread32
  %52 = load i64, ptr @H5E_REFERENCE_g, align 8, !tbaa !17
  %53 = load i64, ptr @H5E_UNSUPPORTED_g, align 8, !tbaa !17
  %54 = tail call i32 (ptr, ptr, i32, i64, i64, ptr, ...) @H5E_printf_stack(ptr noundef nonnull @.str, ptr noundef nonnull @__func__.H5R__equal, i32 noundef 606, i64 noundef %52, i64 noundef %53, ptr noundef nonnull @.str.8) #15
  br label %55

55:                                               ; preds = %41, %28, %27, %26, %19, %14, %9, %37, %47, %51, %30, %.thread32, %2
  %.0 = phi i32 [ -1, %51 ], [ -1, %47 ], [ -1, %37 ], [ %35, %30 ], [ 1, %.thread32 ], [ 1, %2 ], [ 0, %9 ], [ 0, %14 ], [ 0, %19 ], [ 0, %26 ], [ 0, %27 ], [ 0, %28 ], [ %spec.select, %41 ]
  ret i32 %.0
}